; Function Attrs: mustprogress nofree norecurse nosync nounwind memory(readwrite, inaccessiblemem: none) uwtable
define noundef zeroext i1 @_ZN10OpenSubdiv6v3_6_03Far22TopologyRefinerFactoryINS1_18TopologyDescriptorEE23assignComponentTopologyERNS1_15TopologyRefinerERKS3_(ptr noundef nonnull readonly align 8 captures(none) dereferenceable(120) %0, ptr noundef nonnull readonly align 8 captures(none) dereferenceable(104) %1) local_unnamed_addr #7 align 2 {
  %3 = getelementptr inbounds nuw i8, ptr %1, i64 4
  %4 = load i32, ptr %3, align 4
  %5 = icmp sgt i32 %4, 0
  br i1 %5, label %.lr.ph33, label %._crit_edge

.lr.ph33:                                         ; preds = %2
  %6 = getelementptr inbounds nuw i8, ptr %0, i64 48
  %7 = getelementptr inbounds nuw i8, ptr %1, i64 88
  %8 = getelementptr inbounds nuw i8, ptr %1, i64 16
  br label %9

9:                                                ; preds = %.lr.ph33, %.loopexit
  %indvars.iv47 = phi i64 [ 0, %.lr.ph33 ], [ %indvars.iv.next48, %.loopexit ]
  %.01931 = phi i32 [ 0, %.lr.ph33 ], [ %.3, %.loopexit ]
  %10 = load ptr, ptr %6, align 8
  %11 = load ptr, ptr %10, align 8
  %12 = getelementptr inbounds nuw i8, ptr %11, i64 48
  %13 = getelementptr inbounds nuw i8, ptr %11, i64 24
  %14 = shl nuw nsw i64 %indvars.iv47, 1
  %15 = or disjoint i64 %14, 1
  %16 = load ptr, ptr %13, align 8
  %17 = getelementptr inbounds nuw i32, ptr %16, i64 %15
  %18 = load i32, ptr %17, align 4
  %19 = sext i32 %18 to i64
  %20 = load ptr, ptr %12, align 8
  %21 = getelementptr inbounds i32, ptr %20, i64 %19
  %22 = getelementptr inbounds nuw i32, ptr %16, i64 %14
  %23 = load i32, ptr %22, align 4
  %24 = load i8, ptr %7, align 8
  %25 = trunc i8 %24 to i1
  br i1 %25, label %28, label %.preheader

.preheader:                                       ; preds = %9
  %26 = icmp sgt i32 %23, 0
  br i1 %26, label %.lr.ph.preheader, label %.loopexit

.lr.ph.preheader:                                 ; preds = %.preheader
  %27 = sext i32 %.01931 to i64
  %wide.trip.count = zext nneg i32 %23 to i64
  br label %.lr.ph

28:                                               ; preds = %9
  %29 = load ptr, ptr %8, align 8
  %30 = sext i32 %.01931 to i64
  %31 = getelementptr inbounds i32, ptr %29, i64 %30
  %32 = load i32, ptr %31, align 4
  store i32 %32, ptr %21, align 4
  %.126 = add i32 %.01931, 1
  %33 = icmp sgt i32 %23, 1
  br i1 %33, label %.lr.ph29.preheader, label %.loopexit

.lr.ph29.preheader:                               ; preds = %28
  %34 = sext i32 %.126 to i64
  %35 = zext nneg i32 %23 to i64
  br label %.lr.ph29

.lr.ph29:                                         ; preds = %.lr.ph29.preheader, %.lr.ph29
  %indvars.iv42 = phi i64 [ %35, %.lr.ph29.preheader ], [ %indvars.iv.next43, %.lr.ph29 ]
  %indvars.iv40 = phi i64 [ %34, %.lr.ph29.preheader ], [ %indvars.iv.next41, %.lr.ph29 ]
  %indvars.iv.next43 = add nsw i64 %indvars.iv42, -1
  %36 = load ptr, ptr %8, align 8
  %37 = getelementptr inbounds i32, ptr %36, i64 %indvars.iv40
  %38 = load i32, ptr %37, align 4
  %39 = getelementptr inbounds nuw i32, ptr %21, i64 %indvars.iv.next43
  store i32 %38, ptr %39, align 4
  %indvars.iv.next41 = add nsw i64 %indvars.iv40, 1
  %40 = icmp samesign ugt i64 %indvars.iv42, 2
  br i1 %40, label %.lr.ph29, label %.loopexit.loopexit, !llvm.loop !19

.lr.ph:                                           ; preds = %.lr.ph.preheader, %.lr.ph
  %indvars.iv35 = phi i64 [ %27, %.lr.ph.preheader ], [ %indvars.iv.next36, %.lr.ph ]
  %indvars.iv = phi i64 [ 0, %.lr.ph.preheader ], [ %indvars.iv.next, %.lr.ph ]
  %41 = load ptr, ptr %8, align 8
  %indvars.iv.next36 = add nsw i64 %indvars.iv35, 1
  %42 = getelementptr inbounds i32, ptr %41, i64 %indvars.iv35
  %43 = load i32, ptr %42, align 4
  %44 = getelementptr inbounds nuw i32, ptr %21, i64 %indvars.iv
  store i32 %43, ptr %44, align 4
  %indvars.iv.next = add nuw nsw i64 %indvars.iv, 1
  %exitcond.not = icmp eq i64 %indvars.iv.next, %wide.trip.count
  br i1 %exitcond.not, label %.loopexit.loopexit34, label %.lr.ph, !llvm.loop !20

.loopexit.loopexit:                               ; preds = %.lr.ph29
  %45 = trunc nsw i64 %indvars.iv.next41 to i32
  br label %.loopexit

.loopexit.loopexit34:                             ; preds = %.lr.ph
  %46 = trunc nsw i64 %indvars.iv.next36 to i32
  br label %.loopexit

.loopexit:                                        ; preds = %.loopexit.loopexit34, %.loopexit.loopexit, %.preheader, %28
  %.3 = phi i32 [ %.126, %28 ], [ %.01931, %.preheader ], [ %45, %.loopexit.loopexit ], [ %46, %.loopexit.loopexit34 ]
  %indvars.iv.next48 = add nuw nsw i64 %indvars.iv47, 1
  %47 = load i32, ptr %3, align 4
  %48 = sext i32 %47 to i64
  %49 = icmp slt i64 %indvars.iv.next48, %48
  br i1 %49, label %9, label %._crit_edge, !llvm.loop !21

._crit_edge:                                      ; preds = %.loopexit, %2
  ret i1 true
}